Certificate:
    Data:
        Version: 3 (0x2)
        Serial Number: 2 (0x2)
        Signature Algorithm: sha1WithRSAEncryption
        Issuer: C=CN, ST=Sichuan, O=eSign, CN=LoCa/emailAddress=lodevil@live.cn
        Validity
            Not Before: Jul 15 05:04:02 2011 GMT
            Not After : Jul 14 05:04:02 2012 GMT
        Subject: C=CN, ST=Sichuan, O=eSign, CN=LoServer
        Subject Public Key Info:
            Public Key Algorithm: rsaEncryption
            RSA Public Key: (512 bit)
                Modulus (512 bit):
                    00:e0:0d:bd:1c:50:fc:cf:fe:6f:8b:fb:c9:c5:42:
                    ed:c3:89:90:c0:b7:49:50:d0:d2:2d:34:41:87:59:
                    c7:75:1d:59:b0:73:53:0d:33:07:75:f9:30:aa:d4:
                    ec:e1:c2:19:03:0a:cd:1e:41:ec:84:2e:c0:62:2a:
                    1d:9f:bd:eb:fd
                Exponent: 65537 (0x10001)
        X509v3 extensions:
            X509v3 Basic Constraints: 
                CA:FALSE
            Netscape Comment: 
                OpenSSL Generated Certificate
            X509v3 Subject Key Identifier: 
                C2:6E:48:4D:22:6A:3D:1C:16:CE:BB:A9:22:A7:D5:97:C7:66:94:E1
            X509v3 Authority Key Identifier: 
                keyid:41:54:31:B6:BD:7D:3E:B4:8F:3F:10:E4:31:C6:79:06:ED:5C:F3:FE

    Signature Algorithm: sha1WithRSAEncryption
        f5:87:1b:c1:c3:6b:86:08:0b:4e:26:9a:b5:1a:6f:f4:63:40:
        a0:9a:a9:aa:11:e0:43:bf:02:45:a6:ab:eb:73:49:06:fb:48:
        40:16:73:8b:65:57:89:1d:a3:a8:1d:b6:2c:7f:7f:76:c9:0d:
        82:b0:1e:9d:9d:ed:1a:08:56:5c:c2:c7:9d:4b:d4:ef:80:26:
        34:64:80:10:44:4c:4e:1d:9e:b2:44:fa:7d:ad:26:47:86:5c:
        84:ec:77:c4:a2:6f:fb:15:0f:5d:47:b1:94:15:be:d5:46:cf:
        3c:b7:0f:d6:60:6b:e1:f6:2b:3a:dc:d3:39:4a:28:73:3a:f1:
        86:03:f4:9c:cf:38:f6:35:d0:b6:32:d2:af:29:57:47:35:88:
        32:e4:0d:de:41:96:17:9d:51:1a:31:0f:93:f6:a8:ca:9a:48:
        4f:bc:4e:ec:02:84:9d:36:f7:a7:69:be:db:c9:dd:b8:61:5b:
        81:a5:67:0e:0f:62:64:05:ba:ac:bc:fc:22:99:83:8c:74:02:
        79:24:a2:b6:cc:1d:38:ac:bd:62:ba:9c:7a:dc:43:f2:c9:d5:
        72:a6:fa:03:f0:ed:7c:c3:71:57:55:57:f6:c4:7b:1f:23:04:
        e6:e9:e0:95:2b:16:5c:91:63:e3:b5:af:9d:79:73:2b:79:b9:
        ef:44:56:5d
-----BEGIN CERTIFICATE-----
MIICzjCCAbagAwIBAgIBAjANBgkqhkiG9w0BAQUFADBeMQswCQYDVQQGEwJDTjEQ
MA4GA1UECBMHU2ljaHVhbjEOMAwGA1UEChMFZVNpZ24xDTALBgNVBAMTBExvQ2Ex
HjAcBgkqhkiG9w0BCQEWD2xvZGV2aWxAbGl2ZS5jbjAeFw0xMTA3MTUwNTA0MDJa
Fw0xMjA3MTQwNTA0MDJaMEIxCzAJBgNVBAYTAkNOMRAwDgYDVQQIEwdTaWNodWFu
MQ4wDAYDVQQKEwVlU2lnbjERMA8GA1UEAxMITG9TZXJ2ZXIwXDANBgkqhkiG9w0B
AQEFAANLADBIAkEA4A29HFD8z/5vi/vJxULtw4mQwLdJUNDSLTRBh1nHdR1ZsHNT
DTMHdfkwqtTs4cIZAwrNHkHshC7AYiodn73r/QIDAQABo3sweTAJBgNVHRMEAjAA
MCwGCWCGSAGG+EIBDQQfFh1PcGVuU1NMIEdlbmVyYXRlZCBDZXJ0aWZpY2F0ZTAd
BgNVHQ4EFgQUwm5ITSJqPRwWzrupIqfVl8dmlOEwHwYDVR0jBBgwFoAUQVQxtr19
PrSPPxDkMcZ5Bu1c8/4wDQYJKoZIhvcNAQEFBQADggEBAPWHG8HDa4YIC04mmrUa
b/RjQKCaqaoR4EO/AkWmq+tzSQb7SEAWc4tlV4kdo6gdtix/f3bJDYKwHp2d7RoI
VlzCx51L1O+AJjRkgBBETE4dnrJE+n2tJkeGXITsd8Sib/sVD11HsZQVvtVGzzy3
D9Zga+H2Kzrc0zlKKHM68YYD9JzPOPY10LYy0q8pV0c1iDLkDd5BlhedURoxD5P2
qMqaSE+8TuwChJ0296dpvtvJ3bhhW4GlZw4PYmQFuqy8/CKZg4x0AnkkorbMHTis
vWK6nHrcQ/LJ1XKm+gPw7XzDcVdVV/bEex8jBObp4JUrFlyRY+O1r515cyt5ue9E
Vl0=
-----END CERTIFICATE-----
